; Function Attrs: mustprogress nounwind memory(readwrite, inaccessiblemem: write) uwtable
define internal fastcc void @_ZZNK8facebook5velox9functions12_GLOBAL__N_119DecimalBaseFunctionInlnNS2_6DivideEE5applyERKNS0_17SelectivityVectorERSt6vectorISt10shared_ptrINS0_10BaseVectorEESaISC_EERKSA_IKNS0_4TypeEERNS0_4exec7EvalCtxERSC_ENKUlT_E2_clIiEEDaSP_(ptr nocapture noundef nonnull readonly align 8 dereferenceable(32) %this, i32 noundef %row) unnamed_addr #17 align 2 {
entry:
  %0 = load ptr, ptr %this, align 8
  %1 = getelementptr inbounds i8, ptr %this, i64 8
  %2 = load ptr, ptr %1, align 8
  %3 = load ptr, ptr %2, align 8
  %idxprom = sext i32 %row to i64
  %4 = getelementptr inbounds i8, ptr %this, i64 16
  %5 = load ptr, ptr %4, align 8
  %6 = load ptr, ptr %5, align 8
  %data_.i = getelementptr inbounds i8, ptr %6, i64 16
  %7 = load ptr, ptr %data_.i, align 8
  %isIdentityMapping_.i.i = getelementptr inbounds i8, ptr %6, i64 58
  %8 = load i8, ptr %isIdentityMapping_.i.i, align 2
  %9 = and i8 %8, 1
  %tobool.not.i.i = icmp eq i8 %9, 0
  br i1 %tobool.not.i.i, label %if.end.i.i, label %_ZNK8facebook5velox13DecodedVector7valueAtIlEET_i.exit

if.end.i.i:                                       ; preds = %entry
  %isConstantMapping_.i.i = getelementptr inbounds i8, ptr %6, i64 59
  %10 = load i8, ptr %isConstantMapping_.i.i, align 1
  %11 = and i8 %10, 1
  %tobool2.not.i.i = icmp eq i8 %11, 0
  br i1 %tobool2.not.i.i, label %if.end4.i.i, label %if.then3.i.i

if.then3.i.i:                                     ; preds = %if.end.i.i
  %constantIndex_.i.i = getelementptr inbounds i8, ptr %6, i64 64
  %12 = load i32, ptr %constantIndex_.i.i, align 8
  br label %_ZNK8facebook5velox13DecodedVector7valueAtIlEET_i.exit

if.end4.i.i:                                      ; preds = %if.end.i.i
  %indices_.i.i = getelementptr inbounds i8, ptr %6, i64 8
  %13 = load ptr, ptr %indices_.i.i, align 8
  %arrayidx.i.i = getelementptr inbounds i32, ptr %13, i64 %idxprom
  %14 = load i32, ptr %arrayidx.i.i, align 4
  br label %_ZNK8facebook5velox13DecodedVector7valueAtIlEET_i.exit

_ZNK8facebook5velox13DecodedVector7valueAtIlEET_i.exit: ; preds = %entry, %if.then3.i.i, %if.end4.i.i
  %retval.0.i.i = phi i32 [ %12, %if.then3.i.i ], [ %14, %if.end4.i.i ], [ %row, %entry ]
  %idxprom.i = sext i32 %retval.0.i.i to i64
  %arrayidx.i = getelementptr inbounds i64, ptr %7, i64 %idxprom.i
  %15 = load i64, ptr %arrayidx.i, align 8
  %16 = getelementptr inbounds i8, ptr %this, i64 24
  %17 = load ptr, ptr %16, align 8
  %18 = load ptr, ptr %17, align 8
  %data_.i3 = getelementptr inbounds i8, ptr %18, i64 16
  %19 = load ptr, ptr %data_.i3, align 8
  %isIdentityMapping_.i.i4 = getelementptr inbounds i8, ptr %18, i64 58
  %20 = load i8, ptr %isIdentityMapping_.i.i4, align 2
  %21 = and i8 %20, 1
  %tobool.not.i.i5 = icmp eq i8 %21, 0
  br i1 %tobool.not.i.i5, label %if.end.i.i7, label %_ZNK8facebook5velox13DecodedVector7valueAtInEET_i.exit

if.end.i.i7:                                      ; preds = %_ZNK8facebook5velox13DecodedVector7valueAtIlEET_i.exit
  %isConstantMapping_.i.i8 = getelementptr inbounds i8, ptr %18, i64 59
  %22 = load i8, ptr %isConstantMapping_.i.i8, align 1
  %23 = and i8 %22, 1
  %tobool2.not.i.i9 = icmp eq i8 %23, 0
  br i1 %tobool2.not.i.i9, label %if.end4.i.i12, label %if.then3.i.i10

if.then3.i.i10:                                   ; preds = %if.end.i.i7
  %constantIndex_.i.i11 = getelementptr inbounds i8, ptr %18, i64 64
  %24 = load i32, ptr %constantIndex_.i.i11, align 8
  br label %_ZNK8facebook5velox13DecodedVector7valueAtInEET_i.exit

if.end4.i.i12:                                    ; preds = %if.end.i.i7
  %indices_.i.i13 = getelementptr inbounds i8, ptr %18, i64 8
  %25 = load ptr, ptr %indices_.i.i13, align 8
  %arrayidx.i.i15 = getelementptr inbounds i32, ptr %25, i64 %idxprom
  %26 = load i32, ptr %arrayidx.i.i15, align 4
  br label %_ZNK8facebook5velox13DecodedVector7valueAtInEET_i.exit

_ZNK8facebook5velox13DecodedVector7valueAtInEET_i.exit: ; preds = %_ZNK8facebook5velox13DecodedVector7valueAtIlEET_i.exit, %if.then3.i.i10, %if.end4.i.i12
  %retval.0.i.i6 = phi i32 [ %24, %if.then3.i.i10 ], [ %26, %if.end4.i.i12 ], [ %row, %_ZNK8facebook5velox13DecodedVector7valueAtIlEET_i.exit ]
  %conv.i = sext i32 %retval.0.i.i6 to i64
  %mul.i = shl nsw i64 %conv.i, 4
  %add.ptr.i = getelementptr inbounds i8, ptr %19, i64 %mul.i
  %value.i.0.copyload.i = load i128, ptr %add.ptr.i, align 1
  %cmp.not.i.i = icmp eq i128 %value.i.0.copyload.i, 0
  br i1 %cmp.not.i.i, label %if.then.i3.i, label %if.end.i.i16

if.then.i3.i:                                     ; preds = %_ZNK8facebook5velox13DecodedVector7valueAtInEET_i.exit
  tail call void @llvm.trap()
  unreachable

if.end.i.i16:                                     ; preds = %_ZNK8facebook5velox13DecodedVector7valueAtInEET_i.exit
  %aRescale_ = getelementptr inbounds i8, ptr %0, i64 8
  %27 = load i8, ptr %aRescale_, align 8
  %spec.select.i.i = tail call i64 @llvm.abs.i64(i64 %15, i1 true)
  %conv.i.i = zext nneg i64 %spec.select.i.i to i128
  %idxprom.i.i17 = zext i8 %27 to i64
  %arrayidx.i.i18 = getelementptr inbounds [39 x i128], ptr @_ZN8facebook5velox11DecimalUtil12kPowersOfTenE, i64 0, i64 %idxprom.i.i17
  %28 = load i128, ptr %arrayidx.i.i18, align 16
  %29 = tail call { i128, i1 } @llvm.smul.with.overflow.i128(i128 %conv.i.i, i128 %28)
  %30 = extractvalue { i128, i1 } %29, 1
  br i1 %30, label %if.then.i.i.i, label %_ZN8facebook5velox9functions12_GLOBAL__N_16Divide5applyInlnEEvRT_RKT0_RKT1_hh.exit

if.then.i.i.i:                                    ; preds = %if.end.i.i16
  tail call void @llvm.trap()
  unreachable

_ZN8facebook5velox9functions12_GLOBAL__N_16Divide5applyInlnEEvRT_RKT0_RKT1_hh.exit: ; preds = %if.end.i.i16
  %arrayidx = getelementptr inbounds i128, ptr %3, i64 %idxprom
  %cmp4.i.i = icmp slt i128 %value.i.0.copyload.i, 0
  %cmp1.i.i = icmp slt i64 %15, 0
  %spec.select16.i.i = select i1 %cmp1.i.i, i32 -1, i32 1
  %mul6.i.i = sub nsw i32 0, %spec.select16.i.i
  %resultSign.1.i.i = select i1 %cmp4.i.i, i32 %mul6.i.i, i32 %spec.select16.i.i
  %unsignedDivisor.0.i.i = tail call i128 @llvm.abs.i128(i128 %value.i.0.copyload.i, i1 true)
  %31 = extractvalue { i128, i1 } %29, 0
  %32 = shl i128 %31, 64
  %conv11.i.i = ashr exact i128 %32, 64
  %conv11.i.i.frozen = freeze i128 %conv11.i.i
  %unsignedDivisor.0.i.i.frozen = freeze i128 %unsignedDivisor.0.i.i
  %div.i.i = sdiv i128 %conv11.i.i.frozen, %unsignedDivisor.0.i.i.frozen
  %33 = mul i128 %div.i.i, %unsignedDivisor.0.i.i.frozen
  %rem.i.i.decomposed = sub i128 %conv11.i.i.frozen, %33
  %mul13.i.i = shl nsw i128 %rem.i.i.decomposed, 1
  %cmp14.not.i.i = icmp sge i128 %mul13.i.i, %unsignedDivisor.0.i.i
  %inc.i.i = zext i1 %cmp14.not.i.i to i128
  %quotient.0.i.i = add nsw i128 %div.i.i, %inc.i.i
  %conv17.i.i = sext i32 %resultSign.1.i.i to i128
  %mul18.i.i = mul nsw i128 %quotient.0.i.i, %conv17.i.i
  store i128 %mul18.i.i, ptr %arrayidx, align 16
  ret void
}